; Function Attrs: mustprogress nofree norecurse nosync nounwind willreturn memory(read, inaccessiblemem: none) uwtable
define hidden noundef i32 @_ZNK4cvc58internal11NodeBuilder7getKindEv(ptr nocapture noundef nonnull readonly align 8 dereferenceable(116) %this) local_unnamed_addr #8 align 2 {
entry:
  %d_nv = getelementptr inbounds i8, ptr %this, i64 96
  %0 = load ptr, ptr %d_nv, align 8
  %d_kind.i = getelementptr inbounds i8, ptr %0, i64 8
  %bf.load.i = load i16, ptr %d_kind.i, align 8
  %bf.clear.i = and i16 %bf.load.i, 1023
  %bf.cast.i = zext nneg i16 %bf.clear.i to i32
  %cmp.i.i = icmp eq i16 %bf.clear.i, 1023
  %cond.i.i = select i1 %cmp.i.i, i32 -1, i32 %bf.cast.i
  ret i32 %cond.i.i
}